target datalayout = "e-m:e-p270:32:32-p271:32:32-p272:64:64-i64:64-i128:128-f80:128-n8:16:32:64-S128"
target triple = "x86_64-pc-linux-gnu"

%struct._sapi_module_struct = type { ptr, ptr, ptr, ptr, ptr, ptr, ptr, ptr, ptr, ptr, ptr, ptr, ptr, ptr, ptr, ptr, ptr, ptr, ptr, ptr, ptr, ptr, ptr, ptr, i32, i32, ptr, ptr, ptr, ptr, ptr, ptr, i32, ptr, ptr, ptr }
%struct._sapi_globals_struct = type { ptr, %struct.sapi_request_info, %struct.sapi_headers_struct, i64, i8, i8, %struct.stat, ptr, ptr, ptr, i64, i32, i8, double, %struct._zend_array, %struct._zval_struct, %struct._zend_fcall_info_cache, %struct.sapi_request_parse_body_context }
%struct.sapi_request_info = type { ptr, ptr, ptr, i64, ptr, ptr, ptr, ptr, i8, i8, i8, ptr, ptr, ptr, ptr, ptr, ptr, ptr, i32, i32, ptr, i32 }
%struct.sapi_headers_struct = type { %struct._zend_llist, i32, i8, ptr, ptr }
%struct._zend_llist = type { ptr, ptr, i64, i64, ptr, i8, ptr }
%struct.stat = type { i64, i64, i64, i32, i32, i32, i32, i64, i64, i64, i64, %struct.timespec, %struct.timespec, %struct.timespec, [3 x i64] }
%struct.timespec = type { i64, i64 }
%struct._zend_array = type { %struct._zend_refcounted_h, %union.anon.0, i32, %union.anon.1, i32, i32, i32, i32, i64, ptr }
%struct._zend_refcounted_h = type { i32, %union.anon }
%union.anon = type { i32 }
%union.anon.0 = type { i32 }
%union.anon.1 = type { ptr }
%struct._zval_struct = type { %union._zend_value, %union.anon.3, %union.anon.6 }
%union._zend_value = type { i64 }
%union.anon.3 = type { i32 }
%union.anon.6 = type { i32 }
%struct._zend_fcall_info_cache = type { ptr, ptr, ptr, ptr, ptr }
%struct.sapi_request_parse_body_context = type { i8, [5 x %struct.anon.7] }
%struct.anon.7 = type { i8, i64 }

@sapi_module = dso_local global %struct._sapi_module_struct zeroinitializer, align 8
@sapi_globals = dso_local global %struct._sapi_globals_struct zeroinitializer, align 8

; Function Attrs: nounwind uwtable
define internal void @sapi_globals_ctor(ptr noundef %0) #0 {
  %2 = alloca ptr, align 8
  store ptr %0, ptr %2, align 8, !tbaa !19
  %3 = load ptr, ptr %2, align 8, !tbaa !19
  call void @llvm.memset.p0.i64(ptr align 8 %3, i8 0, i64 648, i1 false)
  %4 = load ptr, ptr %2, align 8, !tbaa !19
  %5 = getelementptr inbounds nuw %struct._sapi_globals_struct, ptr %4, i32 0, i32 14
  call void @_zend_hash_init(ptr noundef %5, i32 noundef 8, ptr noundef @_type_dtor, i1 noundef zeroext true)
  %6 = call i32 @php_setup_sapi_content_types()
  ret void
}

; Function Attrs: nounwind uwtable
define dso_local void @sapi_startup(ptr noundef %0) #0 {
  %2 = alloca ptr, align 8
  store ptr %0, ptr %2, align 8, !tbaa !4
  %3 = load ptr, ptr %2, align 8, !tbaa !4
  %4 = getelementptr inbounds nuw %struct._sapi_module_struct, ptr %3, i32 0, i32 33
  store ptr null, ptr %4, align 8, !tbaa !9
  %5 = load ptr, ptr %2, align 8, !tbaa !4
  call void @llvm.memcpy.p0.p0.i64(ptr align 8 @sapi_module, ptr align 8 %5, i64 280, i1 false), !tbaa.struct !14
  call void @sapi_globals_ctor(ptr noundef @sapi_globals)
  ret void
}