; Function Attrs: nounwind uwtable
define dso_local void @sapi_startup(ptr noundef captures(none) initializes((256, 264)) %0) local_unnamed_addr #0 {
  %2 = getelementptr inbounds nuw i8, ptr %0, i64 256
  store ptr null, ptr %2, align 8, !tbaa !4
  tail call void @llvm.memcpy.p0.p0.i64(ptr noundef nonnull align 8 dereferenceable(280) @sapi_module, ptr noundef nonnull align 8 dereferenceable(280) %0, i64 280, i1 false), !tbaa.struct !12
  tail call void @llvm.memset.p0.i64(ptr noundef nonnull align 8 dereferenceable(648) @sapi_globals, i8 0, i64 648, i1 false)
  tail call void @_zend_hash_init(ptr noundef nonnull getelementptr inbounds nuw (i8, ptr @sapi_globals, i64 448), i32 noundef 8, ptr noundef nonnull @_type_dtor, i1 noundef zeroext true) #19
  %3 = tail call i32 @php_setup_sapi_content_types() #19
  ret void
}